; Function Attrs: mustprogress nounwind sspstrong uwtable
define void @_ZN3tbb6detail2r15resetERNS0_2d118task_group_contextE(ptr noundef nonnull align 8 captures(none) dereferenceable(128) %0) local_unnamed_addr #1 personality ptr @__gxx_personality_v0 {
  %2 = getelementptr inbounds nuw i8, ptr %0, i64 48
  %3 = load atomic i64, ptr %2 monotonic, align 8
  %.0.i.i.i = inttoptr i64 %3 to ptr
  %.not.i = icmp eq i64 %3, 0
  br i1 %.not.i, label %_ZN3tbb6detail2r123task_group_context_impl5resetERNS0_2d118task_group_contextE.exit, label %4

4:                                                ; preds = %1
  %5 = load ptr, ptr %.0.i.i.i, align 8, !tbaa !3
  %.not.i.i.i.i = icmp eq ptr %5, null
  br i1 %.not.i.i.i.i, label %_ZN3tbb6detail2r117tbb_exception_ptrD2Ev.exit.i.i, label %6

6:                                                ; preds = %4
  tail call void @_ZNSt15__exception_ptr13exception_ptr10_M_releaseEv(ptr noundef nonnull align 8 dereferenceable(8) %.0.i.i.i) #13
  br label %_ZN3tbb6detail2r117tbb_exception_ptrD2Ev.exit.i.i

_ZN3tbb6detail2r117tbb_exception_ptrD2Ev.exit.i.i: ; preds = %6, %4
  invoke void @_ZN3tbb6detail2r117deallocate_memoryEPv(ptr noundef nonnull align 8 dereferenceable(8) %.0.i.i.i)
          to label %_ZN3tbb6detail2r117tbb_exception_ptr7destroyEv.exit.i unwind label %7

7:                                                ; preds = %_ZN3tbb6detail2r117tbb_exception_ptrD2Ev.exit.i.i
  %8 = landingpad { ptr, i32 }
          catch ptr null
  %9 = extractvalue { ptr, i32 } %8, 0
  tail call void @__clang_call_terminate(ptr %9) #16
  unreachable

_ZN3tbb6detail2r117tbb_exception_ptr7destroyEv.exit.i: ; preds = %_ZN3tbb6detail2r117tbb_exception_ptrD2Ev.exit.i.i
  store atomic i64 0, ptr %2 monotonic, align 8
  br label %_ZN3tbb6detail2r123task_group_context_impl5resetERNS0_2d118task_group_contextE.exit

_ZN3tbb6detail2r123task_group_context_impl5resetERNS0_2d118task_group_contextE.exit: ; preds = %1, %_ZN3tbb6detail2r117tbb_exception_ptr7destroyEv.exit.i
  %10 = getelementptr inbounds nuw i8, ptr %0, i64 8
  store atomic i32 0, ptr %10 seq_cst, align 8
  ret void
}